
status.elf:     file format elf32-avr

Sections:
Idx Name          Size      VMA       LMA       File off  Algn
  0 .data         0000000e  00800100  0000050a  0000059e  2**0
                  CONTENTS, ALLOC, LOAD, DATA
  1 .text         0000050a  00000000  00000000  00000094  2**1
                  CONTENTS, ALLOC, LOAD, READONLY, CODE
  2 .bss          00000009  0080010e  0080010e  000005ac  2**0
                  ALLOC
  3 .comment      00000030  00000000  00000000  000005ac  2**0
                  CONTENTS, READONLY
  4 .note.gnu.avr.deviceinfo 0000003c  00000000  00000000  000005dc  2**2
                  CONTENTS, READONLY

Disassembly of section .text:

00000000 <__vectors>:
   0:	13 c0       	rjmp	.+38     	; 0x28 <__ctors_end>
   2:	2d c0       	rjmp	.+90     	; 0x5e <__bad_interrupt>
   4:	2c c0       	rjmp	.+88     	; 0x5e <__bad_interrupt>
   6:	2b c0       	rjmp	.+86     	; 0x5e <__bad_interrupt>
   8:	2a c0       	rjmp	.+84     	; 0x5e <__bad_interrupt>
   a:	29 c0       	rjmp	.+82     	; 0x5e <__bad_interrupt>
   c:	28 c0       	rjmp	.+80     	; 0x5e <__bad_interrupt>
   e:	27 c0       	rjmp	.+78     	; 0x5e <__bad_interrupt>
  10:	26 c0       	rjmp	.+76     	; 0x5e <__bad_interrupt>
  12:	25 c0       	rjmp	.+74     	; 0x5e <__bad_interrupt>
  14:	24 c0       	rjmp	.+72     	; 0x5e <__bad_interrupt>
  16:	23 c0       	rjmp	.+70     	; 0x5e <__bad_interrupt>
  18:	22 c0       	rjmp	.+68     	; 0x5e <__bad_interrupt>
  1a:	21 c0       	rjmp	.+66     	; 0x5e <__bad_interrupt>
  1c:	20 c0       	rjmp	.+64     	; 0x5e <__bad_interrupt>
  1e:	c7 c0       	rjmp	.+398    	; 0x1ae <__vector_15>
  20:	1e c0       	rjmp	.+60     	; 0x5e <__bad_interrupt>
  22:	1d c0       	rjmp	.+58     	; 0x5e <__bad_interrupt>
  24:	1c c0       	rjmp	.+56     	; 0x5e <__bad_interrupt>
  26:	1b c0       	rjmp	.+54     	; 0x5e <__bad_interrupt>

00000028 <__ctors_end>:
  28:	11 24       	eor	r1, r1
  2a:	1f be       	out	0x3f, r1	; 63
  2c:	cf ef       	ldi	r28, 0xFF	; 255
  2e:	d2 e0       	ldi	r29, 0x02	; 2
  30:	de bf       	out	0x3e, r29	; 62
  32:	cd bf       	out	0x3d, r28	; 61

00000034 <__do_copy_data>:
  34:	11 e0       	ldi	r17, 0x01	; 1
  36:	a0 e0       	ldi	r26, 0x00	; 0
  38:	b1 e0       	ldi	r27, 0x01	; 1
  3a:	ea e0       	ldi	r30, 0x0A	; 10
  3c:	f5 e0       	ldi	r31, 0x05	; 5
  3e:	02 c0       	rjmp	.+4      	; 0x44 <__SREG__+0x5>
  40:	05 90       	lpm	r0, Z+
  42:	0d 92       	st	X+, r0
  44:	ae 30       	cpi	r26, 0x0E	; 14
  46:	b1 07       	cpc	r27, r17
  48:	d9 f7       	brne	.-10     	; 0x40 <__SREG__+0x1>

0000004a <__do_clear_bss>:
  4a:	21 e0       	ldi	r18, 0x01	; 1
  4c:	ae e0       	ldi	r26, 0x0E	; 14
  4e:	b1 e0       	ldi	r27, 0x01	; 1
  50:	01 c0       	rjmp	.+2      	; 0x54 <.do_clear_bss_start>

00000052 <.do_clear_bss_loop>:
  52:	1d 92       	st	X+, r1

00000054 <.do_clear_bss_start>:
  54:	a7 31       	cpi	r26, 0x17	; 23
  56:	b2 07       	cpc	r27, r18
  58:	e1 f7       	brne	.-8      	; 0x52 <.do_clear_bss_loop>
  5a:	14 d0       	rcall	.+40     	; 0x84 <main>
  5c:	54 c2       	rjmp	.+1192   	; 0x506 <_exit>

0000005e <__bad_interrupt>:
  5e:	d0 cf       	rjmp	.-96     	; 0x0 <__vectors>

00000060 <completed_spi>:
  60:	dc 01       	movw	r26, r24
  62:	15 96       	adiw	r26, 0x05	; 5
  64:	2c 91       	ld	r18, X
  66:	15 97       	sbiw	r26, 0x05	; 5
  68:	14 96       	adiw	r26, 0x04	; 4
  6a:	6c 91       	ld	r22, X
  6c:	14 97       	sbiw	r26, 0x04	; 4
  6e:	12 96       	adiw	r26, 0x02	; 2
  70:	4d 91       	ld	r20, X+
  72:	5c 91       	ld	r21, X
  74:	13 97       	sbiw	r26, 0x03	; 3
  76:	e0 91 0e 01 	lds	r30, 0x010E	; 0x80010e <__data_end>
  7a:	f0 91 0f 01 	lds	r31, 0x010F	; 0x80010f <__data_end+0x1>
  7e:	8d 91       	ld	r24, X+
  80:	9c 91       	ld	r25, X
  82:	09 94       	ijmp

00000084 <main>:
  84:	cf 93       	push	r28
  86:	df 93       	push	r29
  88:	cd b7       	in	r28, 0x3d	; 61
  8a:	de b7       	in	r29, 0x3e	; 62
  8c:	cc 54       	subi	r28, 0x4C	; 76
  8e:	d1 09       	sbc	r29, r1
  90:	0f b6       	in	r0, 0x3f	; 63
  92:	f8 94       	cli
  94:	de bf       	out	0x3e, r29	; 62
  96:	0f be       	out	0x3f, r0	; 63
  98:	cd bf       	out	0x3d, r28	; 61
  9a:	6b 9a       	sbi	0x0d, 3	; 13
  9c:	62 e0       	ldi	r22, 0x02	; 2
  9e:	81 e0       	ldi	r24, 0x01	; 1
  a0:	57 d0       	rcall	.+174    	; 0x150 <spi_init>
  a2:	78 94       	sei
  a4:	80 e4       	ldi	r24, 0x40	; 64
  a6:	80 93 7c 00 	sts	0x007C, r24	; 0x80007c <__EEPROM_REGION_LENGTH__+0x7f007c>
  aa:	87 e8       	ldi	r24, 0x87	; 135
  ac:	80 93 7a 00 	sts	0x007A, r24	; 0x80007a <__EEPROM_REGION_LENGTH__+0x7f007a>
  b0:	69 9a       	sbi	0x0d, 1	; 13
  b2:	38 9a       	sbi	0x07, 0	; 7
  b4:	68 9a       	sbi	0x0d, 0	; 13
  b6:	26 98       	cbi	0x04, 6	; 4
  b8:	55 98       	cbi	0x0a, 5	; 10
  ba:	27 98       	cbi	0x04, 7	; 4
  bc:	56 98       	cbi	0x0a, 6	; 10
  be:	4f d1       	rcall	.+670    	; 0x35e <max7221_init>
  c0:	80 e2       	ldi	r24, 0x20	; 32
  c2:	f8 2e       	mov	r15, r24
  c4:	be 01       	movw	r22, r28
  c6:	6f 5d       	subi	r22, 0xDF	; 223
  c8:	7f 4f       	sbci	r23, 0xFF	; 255
  ca:	fb 01       	movw	r30, r22
  cc:	8f 2d       	mov	r24, r15
  ce:	11 92       	st	Z+, r1
  d0:	8a 95       	dec	r24
  d2:	e9 f7       	brne	.-6      	; 0xce <main+0x4a>
  d4:	82 e0       	ldi	r24, 0x02	; 2
  d6:	89 a3       	std	Y+33, r24	; 0x21
  d8:	83 e0       	ldi	r24, 0x03	; 3
  da:	8a a3       	std	Y+34, r24	; 0x22
  dc:	84 e0       	ldi	r24, 0x04	; 4
  de:	8b a3       	std	Y+35, r24	; 0x23
  e0:	85 e0       	ldi	r24, 0x05	; 5
  e2:	8c a3       	std	Y+36, r24	; 0x24
  e4:	96 e0       	ldi	r25, 0x06	; 6
  e6:	e9 2e       	mov	r14, r25
  e8:	ed a2       	std	Y+37, r14	; 0x25
  ea:	87 e0       	ldi	r24, 0x07	; 7
  ec:	8e a3       	std	Y+38, r24	; 0x26
  ee:	42 e0       	ldi	r20, 0x02	; 2
  f0:	82 e0       	ldi	r24, 0x02	; 2
  f2:	ad d1       	rcall	.+858    	; 0x44e <proto_create>
  f4:	28 96       	adiw	r28, 0x08	; 8
  f6:	2f af       	std	Y+63, r18	; 0x3f
  f8:	28 97       	sbiw	r28, 0x08	; 8
  fa:	29 96       	adiw	r28, 0x09	; 9
  fc:	3f af       	std	Y+63, r19	; 0x3f
  fe:	29 97       	sbiw	r28, 0x09	; 9
 100:	2a 96       	adiw	r28, 0x0a	; 10
 102:	4f af       	std	Y+63, r20	; 0x3f
 104:	2a 97       	sbiw	r28, 0x0a	; 10
 106:	2b 96       	adiw	r28, 0x0b	; 11
 108:	5f af       	std	Y+63, r21	; 0x3f
 10a:	2b 97       	sbiw	r28, 0x0b	; 11
 10c:	2c 96       	adiw	r28, 0x0c	; 12
 10e:	6f af       	std	Y+63, r22	; 0x3f
 110:	2c 97       	sbiw	r28, 0x0c	; 12
 112:	2d 96       	adiw	r28, 0x0d	; 13
 114:	7f af       	std	Y+63, r23	; 0x3f
 116:	2d 97       	sbiw	r28, 0x0d	; 13
 118:	8e 01       	movw	r16, r28
 11a:	0f 5b       	subi	r16, 0xBF	; 191
 11c:	1f 4f       	sbci	r17, 0xFF	; 255
 11e:	f8 01       	movw	r30, r16
 120:	11 92       	st	Z+, r1
 122:	ea 94       	dec	r14
 124:	e9 f7       	brne	.-6      	; 0x120 <main+0x9c>
 126:	f8 01       	movw	r30, r16
 128:	f1 82       	std	Z+1, r15	; 0x01
 12a:	ce 01       	movw	r24, r28
 12c:	01 96       	adiw	r24, 0x01	; 1
 12e:	93 83       	std	Z+3, r25	; 0x03
 130:	82 83       	std	Z+2, r24	; 0x02
 132:	80 e3       	ldi	r24, 0x30	; 48
 134:	90 e0       	ldi	r25, 0x00	; 0
 136:	36 d0       	rcall	.+108    	; 0x1a4 <spi_install_hook>
 138:	68 ec       	ldi	r22, 0xC8	; 200
 13a:	70 e0       	ldi	r23, 0x00	; 0
 13c:	8e e0       	ldi	r24, 0x0E	; 14
 13e:	91 e0       	ldi	r25, 0x01	; 1
 140:	77 d1       	rcall	.+750    	; 0x430 <proto_init>
 142:	b8 01       	movw	r22, r16
 144:	ce 01       	movw	r24, r28
 146:	89 5b       	subi	r24, 0xB9	; 185
 148:	9f 4f       	sbci	r25, 0xFF	; 255
 14a:	bc d1       	rcall	.+888    	; 0x4c4 <proto_tranceive>
 14c:	7b d1       	rcall	.+758    	; 0x444 <proto_wait>
 14e:	f9 cf       	rjmp	.-14     	; 0x142 <main+0xbe>

00000150 <spi_init>:
 150:	90 91 08 01 	lds	r25, 0x0108	; 0x800108 <__data_start+0x8>
 154:	80 fb       	bst	r24, 0
 156:	90 f9       	bld	r25, 0
 158:	90 93 08 01 	sts	0x0108, r25	; 0x800108 <__data_start+0x8>
 15c:	96 2f       	mov	r25, r22
 15e:	93 70       	andi	r25, 0x03	; 3
 160:	90 6c       	ori	r25, 0xC0	; 192
 162:	9c bd       	out	0x2c, r25	; 44
 164:	81 11       	cpse	r24, r1
 166:	08 c0       	rjmp	.+16     	; 0x178 <spi_init+0x28>
 168:	24 98       	cbi	0x04, 4	; 4
 16a:	23 9a       	sbi	0x04, 3	; 4
 16c:	25 9a       	sbi	0x04, 5	; 4
 16e:	22 9a       	sbi	0x04, 2	; 4
 170:	8c b5       	in	r24, 0x2c	; 44
 172:	80 61       	ori	r24, 0x10	; 16
 174:	8c bd       	out	0x2c, r24	; 44
 176:	06 c0       	rjmp	.+12     	; 0x184 <spi_init+0x34>
 178:	81 30       	cpi	r24, 0x01	; 1
 17a:	21 f4       	brne	.+8      	; 0x184 <spi_init+0x34>
 17c:	24 9a       	sbi	0x04, 4	; 4
 17e:	23 98       	cbi	0x04, 3	; 4
 180:	25 98       	cbi	0x04, 5	; 4
 182:	22 98       	cbi	0x04, 2	; 4
 184:	62 ff       	sbrs	r22, 2
 186:	03 c0       	rjmp	.+6      	; 0x18e <spi_init+0x3e>
 188:	8d b5       	in	r24, 0x2d	; 45
 18a:	81 60       	ori	r24, 0x01	; 1
 18c:	8d bd       	out	0x2d, r24	; 45
 18e:	08 95       	ret

00000190 <spi_tranceive>:
 190:	0f 93       	push	r16
 192:	02 2f       	mov	r16, r18
 194:	9a 01       	movw	r18, r20
 196:	46 2f       	mov	r20, r22
 198:	bc 01       	movw	r22, r24
 19a:	80 e0       	ldi	r24, 0x00	; 0
 19c:	91 e0       	ldi	r25, 0x01	; 1
 19e:	2c d0       	rcall	.+88     	; 0x1f8 <_spi_tranceive>
 1a0:	0f 91       	pop	r16
 1a2:	08 95       	ret

000001a4 <spi_install_hook>:
 1a4:	90 93 0c 01 	sts	0x010C, r25	; 0x80010c <__data_start+0xc>
 1a8:	80 93 0b 01 	sts	0x010B, r24	; 0x80010b <__data_start+0xb>
 1ac:	08 95       	ret

000001ae <__vector_15>:
 1ae:	1f 92       	push	r1
 1b0:	0f 92       	push	r0
 1b2:	0f b6       	in	r0, 0x3f	; 63
 1b4:	0f 92       	push	r0
 1b6:	11 24       	eor	r1, r1
 1b8:	2f 93       	push	r18
 1ba:	3f 93       	push	r19
 1bc:	4f 93       	push	r20
 1be:	5f 93       	push	r21
 1c0:	6f 93       	push	r22
 1c2:	7f 93       	push	r23
 1c4:	8f 93       	push	r24
 1c6:	9f 93       	push	r25
 1c8:	af 93       	push	r26
 1ca:	bf 93       	push	r27
 1cc:	ef 93       	push	r30
 1ce:	ff 93       	push	r31
 1d0:	80 e0       	ldi	r24, 0x00	; 0
 1d2:	91 e0       	ldi	r25, 0x01	; 1
 1d4:	3f d0       	rcall	.+126    	; 0x254 <_spi_isr>
 1d6:	ff 91       	pop	r31
 1d8:	ef 91       	pop	r30
 1da:	bf 91       	pop	r27
 1dc:	af 91       	pop	r26
 1de:	9f 91       	pop	r25
 1e0:	8f 91       	pop	r24
 1e2:	7f 91       	pop	r23
 1e4:	6f 91       	pop	r22
 1e6:	5f 91       	pop	r21
 1e8:	4f 91       	pop	r20
 1ea:	3f 91       	pop	r19
 1ec:	2f 91       	pop	r18
 1ee:	0f 90       	pop	r0
 1f0:	0f be       	out	0x3f, r0	; 63
 1f2:	0f 90       	pop	r0
 1f4:	1f 90       	pop	r1
 1f6:	18 95       	reti

000001f8 <_spi_tranceive>:
 1f8:	0f 93       	push	r16
 1fa:	fc 01       	movw	r30, r24
 1fc:	80 85       	ldd	r24, Z+8	; 0x08
 1fe:	81 fd       	sbrc	r24, 1
 200:	24 c0       	rjmp	.+72     	; 0x24a <_spi_tranceive+0x52>
 202:	71 83       	std	Z+1, r23	; 0x01
 204:	60 83       	st	Z, r22
 206:	44 83       	std	Z+4, r20	; 0x04
 208:	33 83       	std	Z+3, r19	; 0x03
 20a:	22 83       	std	Z+2, r18	; 0x02
 20c:	05 83       	std	Z+5, r16	; 0x05
 20e:	84 2f       	mov	r24, r20
 210:	04 17       	cp	r16, r20
 212:	08 f4       	brcc	.+2      	; 0x216 <_spi_tranceive+0x1e>
 214:	80 2f       	mov	r24, r16
 216:	86 83       	std	Z+6, r24	; 0x06
 218:	17 82       	std	Z+7, r1	; 0x07
 21a:	80 85       	ldd	r24, Z+8	; 0x08
 21c:	82 60       	ori	r24, 0x02	; 2
 21e:	80 87       	std	Z+8, r24	; 0x08
 220:	61 15       	cp	r22, r1
 222:	71 05       	cpc	r23, r1
 224:	49 f0       	breq	.+18     	; 0x238 <_spi_tranceive+0x40>
 226:	44 23       	and	r20, r20
 228:	39 f0       	breq	.+14     	; 0x238 <_spi_tranceive+0x40>
 22a:	01 84       	ldd	r0, Z+9	; 0x09
 22c:	f2 85       	ldd	r31, Z+10	; 0x0a
 22e:	e0 2d       	mov	r30, r0
 230:	db 01       	movw	r26, r22
 232:	8c 91       	ld	r24, X
 234:	80 83       	st	Z, r24
 236:	0b c0       	rjmp	.+22     	; 0x24e <_spi_tranceive+0x56>
 238:	80 85       	ldd	r24, Z+8	; 0x08
 23a:	80 fd       	sbrc	r24, 0
 23c:	08 c0       	rjmp	.+16     	; 0x24e <_spi_tranceive+0x56>
 23e:	01 84       	ldd	r0, Z+9	; 0x09
 240:	f2 85       	ldd	r31, Z+10	; 0x0a
 242:	e0 2d       	mov	r30, r0
 244:	8f ef       	ldi	r24, 0xFF	; 255
 246:	80 83       	st	Z, r24
 248:	03 c0       	rjmp	.+6      	; 0x250 <_spi_tranceive+0x58>
 24a:	80 e0       	ldi	r24, 0x00	; 0
 24c:	01 c0       	rjmp	.+2      	; 0x250 <_spi_tranceive+0x58>
 24e:	8f ef       	ldi	r24, 0xFF	; 255
 250:	0f 91       	pop	r16
 252:	08 95       	ret

00000254 <_spi_isr>:
 254:	1f 93       	push	r17
 256:	cf 93       	push	r28
 258:	df 93       	push	r29
 25a:	73 9a       	sbi	0x0e, 3	; 14
 25c:	fc 01       	movw	r30, r24
 25e:	20 85       	ldd	r18, Z+8	; 0x08
 260:	21 ff       	sbrs	r18, 1
 262:	30 c0       	rjmp	.+96     	; 0x2c4 <_spi_isr+0x70>
 264:	ec 01       	movw	r28, r24
 266:	a1 85       	ldd	r26, Z+9	; 0x09
 268:	b2 85       	ldd	r27, Z+10	; 0x0a
 26a:	1c 91       	ld	r17, X
 26c:	87 81       	ldd	r24, Z+7	; 0x07
 26e:	8f 5f       	subi	r24, 0xFF	; 255
 270:	87 83       	std	Z+7, r24	; 0x07
 272:	96 81       	ldd	r25, Z+6	; 0x06
 274:	89 17       	cp	r24, r25
 276:	58 f0       	brcs	.+22     	; 0x28e <_spi_isr+0x3a>
 278:	80 85       	ldd	r24, Z+8	; 0x08
 27a:	8d 7f       	andi	r24, 0xFD	; 253
 27c:	80 87       	std	Z+8, r24	; 0x08
 27e:	03 84       	ldd	r0, Z+11	; 0x0b
 280:	f4 85       	ldd	r31, Z+12	; 0x0c
 282:	e0 2d       	mov	r30, r0
 284:	30 97       	sbiw	r30, 0x00	; 0
 286:	89 f0       	breq	.+34     	; 0x2aa <_spi_isr+0x56>
 288:	ce 01       	movw	r24, r28
 28a:	09 95       	icall
 28c:	0e c0       	rjmp	.+28     	; 0x2aa <_spi_isr+0x56>
 28e:	97 81       	ldd	r25, Z+7	; 0x07
 290:	84 81       	ldd	r24, Z+4	; 0x04
 292:	98 17       	cp	r25, r24
 294:	40 f4       	brcc	.+16     	; 0x2a6 <_spi_isr+0x52>
 296:	87 81       	ldd	r24, Z+7	; 0x07
 298:	01 90       	ld	r0, Z+
 29a:	f0 81       	ld	r31, Z
 29c:	e0 2d       	mov	r30, r0
 29e:	e8 0f       	add	r30, r24
 2a0:	f1 1d       	adc	r31, r1
 2a2:	80 81       	ld	r24, Z
 2a4:	01 c0       	rjmp	.+2      	; 0x2a8 <_spi_isr+0x54>
 2a6:	8f ef       	ldi	r24, 0xFF	; 255
 2a8:	8c 93       	st	X, r24
 2aa:	9f 81       	ldd	r25, Y+7	; 0x07
 2ac:	8d 81       	ldd	r24, Y+5	; 0x05
 2ae:	98 17       	cp	r25, r24
 2b0:	40 f4       	brcc	.+16     	; 0x2c2 <_spi_isr+0x6e>
 2b2:	ef 81       	ldd	r30, Y+7	; 0x07
 2b4:	f0 e0       	ldi	r31, 0x00	; 0
 2b6:	31 97       	sbiw	r30, 0x01	; 1
 2b8:	8a 81       	ldd	r24, Y+2	; 0x02
 2ba:	9b 81       	ldd	r25, Y+3	; 0x03
 2bc:	e8 0f       	add	r30, r24
 2be:	f9 1f       	adc	r31, r25
 2c0:	10 83       	st	Z, r17
 2c2:	73 98       	cbi	0x0e, 3	; 14
 2c4:	df 91       	pop	r29
 2c6:	cf 91       	pop	r28
 2c8:	1f 91       	pop	r17
 2ca:	08 95       	ret

000002cc <max7221_write>:
 2cc:	cf 93       	push	r28
 2ce:	df 93       	push	r29
 2d0:	00 d0       	rcall	.+0      	; 0x2d2 <max7221_write+0x6>
 2d2:	cd b7       	in	r28, 0x3d	; 61
 2d4:	de b7       	in	r29, 0x3e	; 62
 2d6:	1a 82       	std	Y+2, r1	; 0x02
 2d8:	19 82       	std	Y+1, r1	; 0x01
 2da:	90 e0       	ldi	r25, 0x00	; 0
 2dc:	88 0f       	add	r24, r24
 2de:	99 1f       	adc	r25, r25
 2e0:	e1 e0       	ldi	r30, 0x01	; 1
 2e2:	f0 e0       	ldi	r31, 0x00	; 0
 2e4:	ec 0f       	add	r30, r28
 2e6:	fd 1f       	adc	r31, r29
 2e8:	e8 0f       	add	r30, r24
 2ea:	f9 1f       	adc	r31, r25
 2ec:	60 83       	st	Z, r22
 2ee:	fe 01       	movw	r30, r28
 2f0:	e8 0f       	add	r30, r24
 2f2:	f9 1f       	adc	r31, r25
 2f4:	42 83       	std	Z+2, r20	; 0x02
 2f6:	40 98       	cbi	0x08, 0	; 8
 2f8:	fe 01       	movw	r30, r28
 2fa:	31 96       	adiw	r30, 0x01	; 1
 2fc:	42 e0       	ldi	r20, 0x02	; 2
 2fe:	4e 0f       	add	r20, r30
 300:	27 e0       	ldi	r18, 0x07	; 7
 302:	30 e0       	ldi	r19, 0x00	; 0
 304:	80 81       	ld	r24, Z
 306:	90 e0       	ldi	r25, 0x00	; 0
 308:	02 2e       	mov	r0, r18
 30a:	02 c0       	rjmp	.+4      	; 0x310 <__stack+0x11>
 30c:	95 95       	asr	r25
 30e:	87 95       	ror	r24
 310:	0a 94       	dec	r0
 312:	e2 f7       	brpl	.-8      	; 0x30c <__stack+0xd>
 314:	80 ff       	sbrs	r24, 0
 316:	02 c0       	rjmp	.+4      	; 0x31c <__stack+0x1d>
 318:	71 9a       	sbi	0x0e, 1	; 14
 31a:	01 c0       	rjmp	.+2      	; 0x31e <__stack+0x1f>
 31c:	71 98       	cbi	0x0e, 1	; 14
 31e:	87 ec       	ldi	r24, 0xC7	; 199
 320:	90 e0       	ldi	r25, 0x00	; 0
 322:	01 97       	sbiw	r24, 0x01	; 1
 324:	f1 f7       	brne	.-4      	; 0x322 <__stack+0x23>
 326:	00 c0       	rjmp	.+0      	; 0x328 <__stack+0x29>
 328:	00 00       	nop
 32a:	70 9a       	sbi	0x0e, 0	; 14
 32c:	87 ec       	ldi	r24, 0xC7	; 199
 32e:	90 e0       	ldi	r25, 0x00	; 0
 330:	01 97       	sbiw	r24, 0x01	; 1
 332:	f1 f7       	brne	.-4      	; 0x330 <__stack+0x31>
 334:	00 c0       	rjmp	.+0      	; 0x336 <__stack+0x37>
 336:	00 00       	nop
 338:	70 98       	cbi	0x0e, 0	; 14
 33a:	87 ec       	ldi	r24, 0xC7	; 199
 33c:	90 e0       	ldi	r25, 0x00	; 0
 33e:	01 97       	sbiw	r24, 0x01	; 1
 340:	f1 f7       	brne	.-4      	; 0x33e <__stack+0x3f>
 342:	00 c0       	rjmp	.+0      	; 0x344 <__stack+0x45>
 344:	00 00       	nop
 346:	21 50       	subi	r18, 0x01	; 1
 348:	31 09       	sbc	r19, r1
 34a:	e0 f6       	brcc	.-72     	; 0x304 <__stack+0x5>
 34c:	31 96       	adiw	r30, 0x01	; 1
 34e:	4e 13       	cpse	r20, r30
 350:	d7 cf       	rjmp	.-82     	; 0x300 <__stack+0x1>
 352:	40 9a       	sbi	0x08, 0	; 8
 354:	0f 90       	pop	r0
 356:	0f 90       	pop	r0
 358:	df 91       	pop	r29
 35a:	cf 91       	pop	r28
 35c:	08 95       	ret

0000035e <max7221_init>:
 35e:	38 9a       	sbi	0x07, 0	; 7
 360:	68 9a       	sbi	0x0d, 0	; 13
 362:	69 9a       	sbi	0x0d, 1	; 13
 364:	40 98       	cbi	0x08, 0	; 8
 366:	70 9a       	sbi	0x0e, 0	; 14
 368:	71 9a       	sbi	0x0e, 1	; 14
 36a:	47 e0       	ldi	r20, 0x07	; 7
 36c:	6b e0       	ldi	r22, 0x0B	; 11
 36e:	80 e0       	ldi	r24, 0x00	; 0
 370:	ad df       	rcall	.-166    	; 0x2cc <max7221_write>
 372:	40 e0       	ldi	r20, 0x00	; 0
 374:	69 e0       	ldi	r22, 0x09	; 9
 376:	80 e0       	ldi	r24, 0x00	; 0
 378:	a9 df       	rcall	.-174    	; 0x2cc <max7221_write>
 37a:	41 e0       	ldi	r20, 0x01	; 1
 37c:	6c e0       	ldi	r22, 0x0C	; 12
 37e:	80 e0       	ldi	r24, 0x00	; 0
 380:	a5 df       	rcall	.-182    	; 0x2cc <max7221_write>
 382:	48 e0       	ldi	r20, 0x08	; 8
 384:	6a e0       	ldi	r22, 0x0A	; 10
 386:	80 e0       	ldi	r24, 0x00	; 0
 388:	a1 cf       	rjmp	.-190    	; 0x2cc <max7221_write>

0000038a <_crc_ccitt_update>:
 38a:	86 27       	eor	r24, r22
 38c:	08 2e       	mov	r0, r24
 38e:	82 95       	swap	r24
 390:	80 7f       	andi	r24, 0xF0	; 240
 392:	80 25       	eor	r24, r0
 394:	09 2e       	mov	r0, r25
 396:	98 2f       	mov	r25, r24
 398:	82 95       	swap	r24
 39a:	8f 70       	andi	r24, 0x0F	; 15
 39c:	08 26       	eor	r0, r24
 39e:	86 95       	lsr	r24
 3a0:	98 27       	eor	r25, r24
 3a2:	89 27       	eor	r24, r25
 3a4:	88 0f       	add	r24, r24
 3a6:	88 0f       	add	r24, r24
 3a8:	88 0f       	add	r24, r24
 3aa:	80 25       	eor	r24, r0
 3ac:	08 95       	ret

000003ae <completed>:
 3ae:	80 91 10 01 	lds	r24, 0x0110	; 0x800110 <state>
 3b2:	83 70       	andi	r24, 0x03	; 3
 3b4:	90 e0       	ldi	r25, 0x00	; 0
 3b6:	81 30       	cpi	r24, 0x01	; 1
 3b8:	91 05       	cpc	r25, r1
 3ba:	e9 f0       	breq	.+58     	; 0x3f6 <completed+0x48>
 3bc:	82 30       	cpi	r24, 0x02	; 2
 3be:	91 05       	cpc	r25, r1
 3c0:	89 f1       	breq	.+98     	; 0x424 <__FUSE_REGION_LENGTH__+0x24>
 3c2:	89 2b       	or	r24, r25
 3c4:	a1 f5       	brne	.+104    	; 0x42e <__FUSE_REGION_LENGTH__+0x2e>
 3c6:	e0 91 13 01 	lds	r30, 0x0113	; 0x800113 <state+0x3>
 3ca:	f0 91 14 01 	lds	r31, 0x0114	; 0x800114 <state+0x4>
 3ce:	21 81       	ldd	r18, Z+1	; 0x01
 3d0:	42 81       	ldd	r20, Z+2	; 0x02
 3d2:	53 81       	ldd	r21, Z+3	; 0x03
 3d4:	e0 91 11 01 	lds	r30, 0x0111	; 0x800111 <state+0x1>
 3d8:	f0 91 12 01 	lds	r31, 0x0112	; 0x800112 <state+0x2>
 3dc:	61 81       	ldd	r22, Z+1	; 0x01
 3de:	82 81       	ldd	r24, Z+2	; 0x02
 3e0:	93 81       	ldd	r25, Z+3	; 0x03
 3e2:	e0 91 15 01 	lds	r30, 0x0115	; 0x800115 <state+0x5>
 3e6:	f0 91 16 01 	lds	r31, 0x0116	; 0x800116 <state+0x6>
 3ea:	09 95       	icall
 3ec:	80 91 10 01 	lds	r24, 0x0110	; 0x800110 <state>
 3f0:	8c 7f       	andi	r24, 0xFC	; 252
 3f2:	81 60       	ori	r24, 0x01	; 1
 3f4:	1a c0       	rjmp	.+52     	; 0x42a <__FUSE_REGION_LENGTH__+0x2a>
 3f6:	40 91 13 01 	lds	r20, 0x0113	; 0x800113 <state+0x3>
 3fa:	50 91 14 01 	lds	r21, 0x0114	; 0x800114 <state+0x4>
 3fe:	4c 5f       	subi	r20, 0xFC	; 252
 400:	5f 4f       	sbci	r21, 0xFF	; 255
 402:	80 91 11 01 	lds	r24, 0x0111	; 0x800111 <state+0x1>
 406:	90 91 12 01 	lds	r25, 0x0112	; 0x800112 <state+0x2>
 40a:	e0 91 15 01 	lds	r30, 0x0115	; 0x800115 <state+0x5>
 40e:	f0 91 16 01 	lds	r31, 0x0116	; 0x800116 <state+0x6>
 412:	22 e0       	ldi	r18, 0x02	; 2
 414:	62 e0       	ldi	r22, 0x02	; 2
 416:	04 96       	adiw	r24, 0x04	; 4
 418:	09 95       	icall
 41a:	80 91 10 01 	lds	r24, 0x0110	; 0x800110 <state>
 41e:	8c 7f       	andi	r24, 0xFC	; 252
 420:	82 60       	ori	r24, 0x02	; 2
 422:	03 c0       	rjmp	.+6      	; 0x42a <__FUSE_REGION_LENGTH__+0x2a>
 424:	80 91 10 01 	lds	r24, 0x0110	; 0x800110 <state>
 428:	8b 7f       	andi	r24, 0xFB	; 251
 42a:	80 93 10 01 	sts	0x0110, r24	; 0x800110 <state>
 42e:	08 95       	ret

00000430 <proto_init>:
 430:	27 ed       	ldi	r18, 0xD7	; 215
 432:	31 e0       	ldi	r19, 0x01	; 1
 434:	fc 01       	movw	r30, r24
 436:	31 83       	std	Z+1, r19	; 0x01
 438:	20 83       	st	Z, r18
 43a:	70 93 16 01 	sts	0x0116, r23	; 0x800116 <state+0x6>
 43e:	60 93 15 01 	sts	0x0115, r22	; 0x800115 <state+0x5>
 442:	08 95       	ret

00000444 <proto_wait>:
 444:	80 91 10 01 	lds	r24, 0x0110	; 0x800110 <state>
 448:	82 fd       	sbrc	r24, 2
 44a:	fc cf       	rjmp	.-8      	; 0x444 <proto_wait>
 44c:	08 95       	ret

0000044e <proto_create>:
 44e:	bf 92       	push	r11
 450:	cf 92       	push	r12
 452:	df 92       	push	r13
 454:	ef 92       	push	r14
 456:	ff 92       	push	r15
 458:	0f 93       	push	r16
 45a:	1f 93       	push	r17
 45c:	cf 93       	push	r28
 45e:	df 93       	push	r29
 460:	00 d0       	rcall	.+0      	; 0x462 <proto_create+0x14>
 462:	00 d0       	rcall	.+0      	; 0x464 <proto_create+0x16>
 464:	00 d0       	rcall	.+0      	; 0x466 <proto_create+0x18>
 466:	cd b7       	in	r28, 0x3d	; 61
 468:	de b7       	in	r29, 0x3e	; 62
 46a:	d8 2e       	mov	r13, r24
 46c:	16 2f       	mov	r17, r22
 46e:	c7 2e       	mov	r12, r23
 470:	04 2f       	mov	r16, r20
 472:	68 2f       	mov	r22, r24
 474:	8f ef       	ldi	r24, 0xFF	; 255
 476:	9f ef       	ldi	r25, 0xFF	; 255
 478:	88 df       	rcall	.-240    	; 0x38a <_crc_ccitt_update>
 47a:	60 2f       	mov	r22, r16
 47c:	86 df       	rcall	.-244    	; 0x38a <_crc_ccitt_update>
 47e:	b1 2e       	mov	r11, r17
 480:	e1 2e       	mov	r14, r17
 482:	fc 2c       	mov	r15, r12
 484:	2e 2d       	mov	r18, r14
 486:	2b 19       	sub	r18, r11
 488:	20 17       	cp	r18, r16
 48a:	28 f4       	brcc	.+10     	; 0x496 <proto_create+0x48>
 48c:	f7 01       	movw	r30, r14
 48e:	61 91       	ld	r22, Z+
 490:	7f 01       	movw	r14, r30
 492:	7b df       	rcall	.-266    	; 0x38a <_crc_ccitt_update>
 494:	f7 cf       	rjmp	.-18     	; 0x484 <proto_create+0x36>
 496:	41 2f       	mov	r20, r17
 498:	5c 2d       	mov	r21, r12
 49a:	bc 01       	movw	r22, r24
 49c:	2d 2d       	mov	r18, r13
 49e:	30 2f       	mov	r19, r16
 4a0:	80 e0       	ldi	r24, 0x00	; 0
 4a2:	90 e0       	ldi	r25, 0x00	; 0
 4a4:	26 96       	adiw	r28, 0x06	; 6
 4a6:	0f b6       	in	r0, 0x3f	; 63
 4a8:	f8 94       	cli
 4aa:	de bf       	out	0x3e, r29	; 62
 4ac:	0f be       	out	0x3f, r0	; 63
 4ae:	cd bf       	out	0x3d, r28	; 61
 4b0:	df 91       	pop	r29
 4b2:	cf 91       	pop	r28
 4b4:	1f 91       	pop	r17
 4b6:	0f 91       	pop	r16
 4b8:	ff 90       	pop	r15
 4ba:	ef 90       	pop	r14
 4bc:	df 90       	pop	r13
 4be:	cf 90       	pop	r12
 4c0:	bf 90       	pop	r11
 4c2:	08 95       	ret

000004c4 <proto_tranceive>:
 4c4:	dc 01       	movw	r26, r24
 4c6:	ab 01       	movw	r20, r22
 4c8:	80 91 10 01 	lds	r24, 0x0110	; 0x800110 <state>
 4cc:	82 fd       	sbrc	r24, 2
 4ce:	1a c0       	rjmp	.+52     	; 0x504 <proto_tranceive+0x40>
 4d0:	90 91 10 01 	lds	r25, 0x0110	; 0x800110 <state>
 4d4:	9c 7f       	andi	r25, 0xFC	; 252
 4d6:	90 93 10 01 	sts	0x0110, r25	; 0x800110 <state>
 4da:	80 91 10 01 	lds	r24, 0x0110	; 0x800110 <state>
 4de:	84 60       	ori	r24, 0x04	; 4
 4e0:	80 93 10 01 	sts	0x0110, r24	; 0x800110 <state>
 4e4:	b0 93 12 01 	sts	0x0112, r27	; 0x800112 <state+0x2>
 4e8:	a0 93 11 01 	sts	0x0111, r26	; 0x800111 <state+0x1>
 4ec:	70 93 14 01 	sts	0x0114, r23	; 0x800114 <state+0x4>
 4f0:	60 93 13 01 	sts	0x0113, r22	; 0x800113 <state+0x3>
 4f4:	e0 91 15 01 	lds	r30, 0x0115	; 0x800115 <state+0x5>
 4f8:	f0 91 16 01 	lds	r31, 0x0116	; 0x800116 <state+0x6>
 4fc:	22 e0       	ldi	r18, 0x02	; 2
 4fe:	62 e0       	ldi	r22, 0x02	; 2
 500:	cd 01       	movw	r24, r26
 502:	09 94       	ijmp
 504:	08 95       	ret

00000506 <_exit>:
 506:	f8 94       	cli

00000508 <__stop_program>:
 508:	ff cf       	rjmp	.-2      	; 0x508 <__stop_program>
